; Function Attrs: mustprogress nofree norecurse nosync nounwind willreturn memory(argmem: read) uwtable
define dso_local { i64, i8 } @_ZNK4llvm14DWARFDebugLine8Prologue21getLastValidFileIndexEv(ptr noundef nonnull readonly align 8 captures(none) dereferenceable(112) %0) local_unnamed_addr #2 align 2 {
  %2 = getelementptr inbounds nuw i8, ptr %0, i64 88
  %3 = load ptr, ptr %2, align 8
  %4 = getelementptr inbounds nuw i8, ptr %0, i64 96
  %5 = load ptr, ptr %4, align 8
  %6 = icmp eq ptr %3, %5
  br i1 %6, label %16, label %7

7:                                                ; preds = %1
  %8 = getelementptr inbounds nuw i8, ptr %0, i64 8
  %9 = load i16, ptr %8, align 8
  %10 = icmp ugt i16 %9, 4
  %11 = ptrtoint ptr %5 to i64
  %12 = ptrtoint ptr %3 to i64
  %13 = sub i64 %11, %12
  %14 = sdiv exact i64 %13, 136
  %15 = sext i1 %10 to i64
  %spec.select = add nsw i64 %14, %15
  br label %16

16:                                               ; preds = %7, %1
  %.sroa.0.0 = phi i64 [ undef, %1 ], [ %spec.select, %7 ]
  %.sroa.3.0 = phi i8 [ 0, %1 ], [ 1, %7 ]
  %.fca.0.insert = insertvalue { i64, i8 } poison, i64 %.sroa.0.0, 0
  %.fca.1.insert = insertvalue { i64, i8 } %.fca.0.insert, i8 %.sroa.3.0, 1
  ret { i64, i8 } %.fca.1.insert
}